target datalayout = "e-m:e-p270:32:32-p271:32:32-p272:64:64-i64:64-i128:128-f80:128-n8:16:32:64-S128"
target triple = "x86_64-pc-linux-gnu"

@.str.13 = private unnamed_addr constant [5 x i8] c"%s, \00", align 1
@mpd_signal_string = internal global [15 x ptr] [ptr @.str.19, ptr @.str.34, ptr @.str.21, ptr @.str.34, ptr @.str.34, ptr @.str.34, ptr @.str.25, ptr @.str.34, ptr @.str.34, ptr @.str.34, ptr @.str.29, ptr @.str.30, ptr @.str.31, ptr @.str.32, ptr @.str.33], align 16

; Function Attrs: nounwind uwtable
define hidden i32 @mpd_lsnprint_signals(ptr noundef %0, i32 noundef %1, i32 noundef %2, ptr noundef %3) #0 {
  %5 = alloca i32, align 4
  %6 = alloca ptr, align 8
  %7 = alloca i32, align 4
  %8 = alloca i32, align 4
  %9 = alloca ptr, align 8
  %10 = alloca ptr, align 8
  %11 = alloca i32, align 4
  %12 = alloca i32, align 4
  %13 = alloca i32, align 4
  %14 = alloca i32, align 4
  %15 = alloca i32, align 4
  store ptr %0, ptr %6, align 8, !tbaa !8
  store i32 %1, ptr %7, align 4, !tbaa !25
  store i32 %2, ptr %8, align 4, !tbaa !25
  store ptr %3, ptr %9, align 8, !tbaa !29
  call void @llvm.lifetime.start.p0(i64 8, ptr %10) #10
  call void @llvm.lifetime.start.p0(i64 4, ptr %11) #10
  call void @llvm.lifetime.start.p0(i64 4, ptr %12) #10
  call void @llvm.lifetime.start.p0(i64 4, ptr %13) #10
  store i32 0, ptr %13, align 4, !tbaa !25
  %16 = load ptr, ptr %9, align 8, !tbaa !29
  %17 = icmp eq ptr %16, null
  br i1 %17, label %18, label %19

18:                                               ; preds = %4
  store ptr @mpd_signal_string, ptr %9, align 8, !tbaa !29
  br label %19

19:                                               ; preds = %18, %4
  %20 = load ptr, ptr %6, align 8, !tbaa !8
  store i8 91, ptr %20, align 1, !tbaa !14
  %21 = load ptr, ptr %6, align 8, !tbaa !8
  %22 = getelementptr i8, ptr %21, i64 1
  store i8 0, ptr %22, align 1, !tbaa !14
  %23 = load ptr, ptr %6, align 8, !tbaa !8
  %24 = getelementptr i8, ptr %23, i64 1
  store ptr %24, ptr %10, align 8, !tbaa !8
  %25 = load i32, ptr %7, align 4, !tbaa !25
  %26 = add i32 %25, -1
  store i32 %26, ptr %7, align 4, !tbaa !25
  store i32 0, ptr %12, align 4, !tbaa !25
  br label %27

27:                                               ; preds = %75, %19
  %28 = load i32, ptr %12, align 4, !tbaa !25
  %29 = icmp slt i32 %28, 15
  br i1 %29, label %30, label %78

30:                                               ; preds = %27
  call void @llvm.lifetime.start.p0(i64 4, ptr %14) #10
  %31 = load i32, ptr %8, align 4, !tbaa !25
  %32 = load i32, ptr %12, align 4, !tbaa !25
  %33 = shl i32 1, %32
  %34 = and i32 %31, %33
  store i32 %34, ptr %14, align 4, !tbaa !25
  %35 = load i32, ptr %14, align 4, !tbaa !25
  %36 = icmp ne i32 %35, 0
  br i1 %36, label %37, label %71

37:                                               ; preds = %30
  %38 = load i32, ptr %14, align 4, !tbaa !25
  %39 = and i32 %38, 954
  %40 = icmp ne i32 %39, 0
  br i1 %40, label %41, label %46

41:                                               ; preds = %37
  %42 = load i32, ptr %13, align 4, !tbaa !25
  %43 = icmp ne i32 %42, 0
  br i1 %43, label %44, label %45

44:                                               ; preds = %41
  store i32 4, ptr %15, align 4
  br label %72

45:                                               ; preds = %41
  store i32 1, ptr %13, align 4, !tbaa !25
  br label %46

46:                                               ; preds = %45, %37
  %47 = load ptr, ptr %10, align 8, !tbaa !8
  %48 = load i32, ptr %7, align 4, !tbaa !25
  %49 = sext i32 %48 to i64
  %50 = load ptr, ptr %9, align 8, !tbaa !29
  %51 = load i32, ptr %12, align 4, !tbaa !25
  %52 = sext i32 %51 to i64
  %53 = getelementptr ptr, ptr %50, i64 %52
  %54 = load ptr, ptr %53, align 8, !tbaa !8
  %55 = call i32 (ptr, i64, ptr, ...) @snprintf(ptr noundef %47, i64 noundef %49, ptr noundef @.str.13, ptr noundef %54) #10
  store i32 %55, ptr %11, align 4, !tbaa !25
  %56 = load i32, ptr %11, align 4, !tbaa !25
  %57 = icmp slt i32 %56, 0
  br i1 %57, label %62, label %58

58:                                               ; preds = %46
  %59 = load i32, ptr %11, align 4, !tbaa !25
  %60 = load i32, ptr %7, align 4, !tbaa !25
  %61 = icmp sge i32 %59, %60
  br i1 %61, label %62, label %63

62:                                               ; preds = %58, %46
  store i32 -1, ptr %5, align 4
  store i32 1, ptr %15, align 4
  br label %72

63:                                               ; preds = %58
  %64 = load i32, ptr %11, align 4, !tbaa !25
  %65 = load ptr, ptr %10, align 8, !tbaa !8
  %66 = sext i32 %64 to i64
  %67 = getelementptr i8, ptr %65, i64 %66
  store ptr %67, ptr %10, align 8, !tbaa !8
  %68 = load i32, ptr %11, align 4, !tbaa !25
  %69 = load i32, ptr %7, align 4, !tbaa !25
  %70 = sub i32 %69, %68
  store i32 %70, ptr %7, align 4, !tbaa !25
  br label %71

71:                                               ; preds = %63, %30
  store i32 0, ptr %15, align 4
  br label %72

72:                                               ; preds = %71, %62, %44
  call void @llvm.lifetime.end.p0(i64 4, ptr %14) #10
  %73 = load i32, ptr %15, align 4
  switch i32 %73, label %96 [
    i32 0, label %74
    i32 4, label %75
  ]

74:                                               ; preds = %72
  br label %75

75:                                               ; preds = %74, %72
  %76 = load i32, ptr %12, align 4, !tbaa !25
  %77 = add i32 %76, 1
  store i32 %77, ptr %12, align 4, !tbaa !25
  br label %27, !llvm.loop !79

78:                                               ; preds = %27
  %79 = load ptr, ptr %10, align 8, !tbaa !8
  %80 = load ptr, ptr %6, align 8, !tbaa !8
  %81 = getelementptr i8, ptr %80, i64 1
  %82 = icmp ne ptr %79, %81
  br i1 %82, label %83, label %86

83:                                               ; preds = %78
  %84 = load ptr, ptr %10, align 8, !tbaa !8
  %85 = getelementptr i8, ptr %84, i64 -2
  store ptr %85, ptr %10, align 8, !tbaa !8
  br label %86

86:                                               ; preds = %83, %78
  %87 = load ptr, ptr %10, align 8, !tbaa !8
  %88 = getelementptr i8, ptr %87, i32 1
  store ptr %88, ptr %10, align 8, !tbaa !8
  store i8 93, ptr %87, align 1, !tbaa !14
  %89 = load ptr, ptr %10, align 8, !tbaa !8
  store i8 0, ptr %89, align 1, !tbaa !14
  %90 = load ptr, ptr %10, align 8, !tbaa !8
  %91 = load ptr, ptr %6, align 8, !tbaa !8
  %92 = ptrtoint ptr %90 to i64
  %93 = ptrtoint ptr %91 to i64
  %94 = sub i64 %92, %93
  %95 = trunc i64 %94 to i32
  store i32 %95, ptr %5, align 4
  store i32 1, ptr %15, align 4
  br label %96

96:                                               ; preds = %86, %72
  call void @llvm.lifetime.end.p0(i64 4, ptr %13) #10
  call void @llvm.lifetime.end.p0(i64 4, ptr %12) #10
  call void @llvm.lifetime.end.p0(i64 4, ptr %11) #10
  call void @llvm.lifetime.end.p0(i64 8, ptr %10) #10
  %97 = load i32, ptr %5, align 4
  ret i32 %97
}